; Function Attrs: mustprogress nounwind uwtable
define hidden void @_ZN6hermes3sem17SemanticValidator9visitBodyEPNS_6ESTree4NodeEPNS2_16FunctionLikeNodeE(ptr noundef nonnull align 8 dereferenceable(168) %this, ptr noundef %body, ptr noundef %func) local_unnamed_addr #0 align 2 {
entry:
  %kind_.i.i.i.i.i.i.i.i = getelementptr inbounds nuw i8, ptr %body, i64 16
  %0 = load i32, ptr %kind_.i.i.i.i.i.i.i.i, align 8
  %cmp.i.i.i.i.i.i.i = icmp ne i32 %0, 19
  %tobool.not8 = icmp eq ptr %body, null
  %tobool.not = or i1 %tobool.not8, %cmp.i.i.i.i.i.i.i
  br i1 %tobool.not, label %if.end, label %if.then

if.then:                                          ; preds = %entry
  %_body = getelementptr inbounds nuw i8, ptr %body, i64 56
  %Next.i.i.i.i = getelementptr inbounds nuw i8, ptr %body, i64 64
  %__begin3.sroa.0.09 = load ptr, ptr %Next.i.i.i.i, align 8
  %cmp.i.not10 = icmp eq ptr %__begin3.sroa.0.09, %_body
  br i1 %cmp.i.not10, label %return, label %for.body

for.body:                                         ; preds = %if.then, %for.body
  %__begin3.sroa.0.011 = phi ptr [ %__begin3.sroa.0.0, %for.body ], [ %__begin3.sroa.0.09, %if.then ]
  %call.i = tail call { ptr, i8 } @_ZN6hermes6ESTree24RecursiveVisitorDispatchINS_3sem17SemanticValidatorELb1EE5visitERS3_PNS0_4NodeES7_(ptr noundef nonnull align 8 dereferenceable(168) %this, ptr noundef nonnull %__begin3.sroa.0.011, ptr noundef nonnull %body)
  %Next.i.i.i = getelementptr inbounds nuw i8, ptr %__begin3.sroa.0.011, i64 8
  %__begin3.sroa.0.0 = load ptr, ptr %Next.i.i.i, align 8
  %cmp.i.not = icmp eq ptr %__begin3.sroa.0.0, %_body
  br i1 %cmp.i.not, label %return, label %for.body

if.end:                                           ; preds = %entry
  %call.i5 = tail call { ptr, i8 } @_ZN6hermes6ESTree24RecursiveVisitorDispatchINS_3sem17SemanticValidatorELb1EE5visitERS3_PNS0_4NodeES7_(ptr noundef nonnull align 8 dereferenceable(168) %this, ptr noundef nonnull %body, ptr noundef %func)
  br label %return

return:                                           ; preds = %for.body, %if.then, %if.end
  ret void
}